; ModuleID = '50/24.c'
source_filename = "50/24.c"
target datalayout = "e-m:e-p270:32:32-p271:32:32-p272:64:64-i64:64-f80:128-n8:16:32:64-S128"
target triple = "x86_64-pc-linux-gnu"

@.str = private unnamed_addr constant [3 x i8] c"%d\00", align 1
@.str.1 = private unnamed_addr constant [4 x i8] c"%d\0A\00", align 1

; Function Attrs: noinline nounwind uwtable
define dso_local i32 @mon(i32 %0) #0 {
  %2 = alloca i32, align 4
  %3 = alloca i32, align 4
  store i32 %0, i32* %2, align 4
  %4 = load i32, i32* %2, align 4
  %5 = icmp eq i32 %4, 1
  br i1 %5, label %24, label %6

6:                                                ; preds = %1
  %7 = load i32, i32* %2, align 4
  %8 = icmp eq i32 %7, 3
  br i1 %8, label %24, label %9

9:                                                ; preds = %6
  %10 = load i32, i32* %2, align 4
  %11 = icmp eq i32 %10, 5
  br i1 %11, label %24, label %12

12:                                               ; preds = %9
  %13 = load i32, i32* %2, align 4
  %14 = icmp eq i32 %13, 7
  br i1 %14, label %24, label %15

15:                                               ; preds = %12
  %16 = load i32, i32* %2, align 4
  %17 = icmp eq i32 %16, 8
  br i1 %17, label %24, label %18

18:                                               ; preds = %15
  %19 = load i32, i32* %2, align 4
  %20 = icmp eq i32 %19, 10
  br i1 %20, label %24, label %21

21:                                               ; preds = %18
  %22 = load i32, i32* %2, align 4
  %23 = icmp eq i32 %22, 12
  br i1 %23, label %24, label %25

24:                                               ; preds = %21, %18, %15, %12, %9, %6, %1
  store i32 31, i32* %3, align 4
  br label %31

25:                                               ; preds = %21
  %26 = load i32, i32* %2, align 4
  %27 = icmp eq i32 %26, 2
  br i1 %27, label %28, label %29

28:                                               ; preds = %25
  store i32 28, i32* %3, align 4
  br label %30

29:                                               ; preds = %25
  store i32 30, i32* %3, align 4
  br label %30

30:                                               ; preds = %29, %28
  br label %31

31:                                               ; preds = %30, %24
  %32 = load i32, i32* %3, align 4
  ret i32 %32
}

; Function Attrs: noinline nounwind uwtable
define dso_local i32 @main() #0 {
  %1 = alloca i32, align 4
  %2 = alloca i32, align 4
  %3 = alloca i32, align 4
  %4 = alloca i32, align 4
  %5 = alloca i32, align 4
  store i32 0, i32* %1, align 4
  store i32 13, i32* %4, align 4
  %6 = call i32 (i8*, ...) @__isoc99_scanf(i8* getelementptr inbounds ([3 x i8], [3 x i8]* @.str, i64 0, i64 0), i32* %2)
  store i32 1, i32* %5, align 4
  br label %7

7:                                                ; preds = %26, %0
  %8 = load i32, i32* %5, align 4
  %9 = icmp sle i32 %8, 12
  br i1 %9, label %10, label %29

10:                                               ; preds = %7
  %11 = load i32, i32* %4, align 4
  %12 = sub nsw i32 %11, 1
  %13 = load i32, i32* %2, align 4
  %14 = add nsw i32 %12, %13
  %15 = srem i32 %14, 7
  store i32 %15, i32* %3, align 4
  %16 = load i32, i32* %3, align 4
  %17 = icmp eq i32 %16, 5
  br i1 %17, label %18, label %21

18:                                               ; preds = %10
  %19 = load i32, i32* %5, align 4
  %20 = call i32 (i8*, ...) @printf(i8* getelementptr inbounds ([4 x i8], [4 x i8]* @.str.1, i64 0, i64 0), i32 %19)
  br label %21

21:                                               ; preds = %18, %10
  %22 = load i32, i32* %4, align 4
  %23 = load i32, i32* %5, align 4
  %24 = call i32 @mon(i32 %23)
  %25 = add nsw i32 %22, %24
  store i32 %25, i32* %4, align 4
  br label %26

26:                                               ; preds = %21
  %27 = load i32, i32* %5, align 4
  %28 = add nsw i32 %27, 1
  store i32 %28, i32* %5, align 4
  br label %7

29:                                               ; preds = %7
  ret i32 0
}

declare dso_local i32 @__isoc99_scanf(i8*, ...) #1

declare dso_local i32 @printf(i8*, ...) #1


!llvm.module.flags = !{!0}
!llvm.ident = !{!1}

!0 = !{i32 1, !"wchar_size", i32 4}
!1 = !{!"clang version 10.0.0-4ubuntu1 "}
